target datalayout = "e-m:e-p270:32:32-p271:32:32-p272:64:64-i64:64-i128:128-f80:128-n8:16:32:64-S128"
target triple = "x86_64-pc-linux-gnu"

%struct.cli_ctx_tag = type { ptr, ptr, ptr, ptr, ptr, ptr, ptr, i64, ptr, i32, i32, ptr, i32, i32, ptr, [16 x i8], ptr, ptr, ptr, ptr, ptr, ptr, %struct.timeval, i8, i8 }
%struct.timeval = type { i64, i64 }
%struct.cl_fmap = type { ptr, ptr, ptr, i64, i64, i64, i64, i8, i8, i8, i64, i64, i64, i64, ptr, ptr, ptr, ptr, ptr, ptr, ptr, i8, [16 x i8], i8, [20 x i8], i8, [32 x i8], ptr, ptr }
%struct.cl_engine = type { i32, i32, i32, [2 x i32], i32, i32, i32, ptr, i32, i64, i32, i32, i64, i64, i32, i32, i32, i32, ptr, ptr, ptr, ptr, ptr, ptr, ptr, ptr, ptr, ptr, ptr, ptr, ptr, ptr, ptr, ptr, ptr, ptr, ptr, i64, ptr, %struct.crtmgr, ptr, ptr, ptr, ptr, ptr, ptr, ptr, ptr, ptr, ptr, ptr, ptr, ptr, ptr, ptr, ptr, ptr, %struct.cli_all_bc, [7 x ptr], [7 x i32], i32, i32, i32, i32, i64, i64, i64, i64, i64, ptr, ptr, ptr, ptr, ptr, ptr, ptr, ptr, ptr, i32, i32, i32, i64, i64, i64, ptr }
%struct.crtmgr = type { ptr, i32 }
%struct.cli_all_bc = type { ptr, i32, ptr, %struct.cli_environment, i32 }
%struct.cli_environment = type { i32, i32, i32, i32, i32, i32, i32, [65 x i8], [65 x i8], [65 x i8], [65 x i8], [65 x i8], [65 x i8], [65 x i8], i8, i8, i8, i8, i8, i8, i8, i8, i8 }

@.str.25 = private unnamed_addr constant [30 x i8] c"ishield: skipping empty file\0A\00", align 1
@.str.26 = private unnamed_addr constant [35 x i8] c"ishield: failed to create file %s\0A\00", align 1
@.str.27 = private unnamed_addr constant [21 x i8] c"ishield: read error\0A\00", align 1
@.str.28 = private unnamed_addr constant [26 x i8] c"ishield: extracted to %s\0A\00", align 1
@.str.29 = private unnamed_addr constant [33 x i8] c"ishield: call to lseek() failed\0A\00", align 1

; Function Attrs: nounwind uwtable
define internal ptr @fmap_need_off_once(ptr noundef %0, i64 noundef %1, i64 noundef %2) #0 {
  %4 = alloca ptr, align 8
  %5 = alloca i64, align 8
  %6 = alloca i64, align 8
  store ptr %0, ptr %4, align 8
  store i64 %1, ptr %5, align 8
  store i64 %2, ptr %6, align 8
  %7 = load ptr, ptr %4, align 8
  %8 = getelementptr inbounds %struct.cl_fmap, ptr %7, i32 0, i32 15
  %9 = load ptr, ptr %8, align 8
  %10 = load ptr, ptr %4, align 8
  %11 = load i64, ptr %5, align 8
  %12 = load i64, ptr %6, align 8
  %13 = call ptr %9(ptr noundef %10, i64 noundef %11, i64 noundef %12, i32 noundef 0)
  ret ptr %13
}

; Function Attrs: nounwind uwtable
define internal i32 @is_dump_and_scan(ptr noundef %0, i64 noundef %1, i64 noundef %2) #0 {
  %4 = alloca i32, align 4
  %5 = alloca ptr, align 8
  %6 = alloca i64, align 8
  %7 = alloca i64, align 8
  %8 = alloca ptr, align 8
  %9 = alloca ptr, align 8
  %10 = alloca i32, align 4
  %11 = alloca i32, align 4
  %12 = alloca ptr, align 8
  %13 = alloca i64, align 8
  store ptr %0, ptr %5, align 8
  store i64 %1, ptr %6, align 8
  store i64 %2, ptr %7, align 8
  store i32 0, ptr %11, align 4
  %14 = load ptr, ptr %5, align 8
  %15 = getelementptr inbounds %struct.cli_ctx_tag, ptr %14, i32 0, i32 14
  %16 = load ptr, ptr %15, align 8
  store ptr %16, ptr %12, align 8
  %17 = load i64, ptr %7, align 8
  %18 = icmp ne i64 %17, 0
  br i1 %18, label %20, label %19

19:                                               ; preds = %3
  call void (ptr, ...) @cli_dbgmsg(ptr noundef @.str.25)
  store i32 0, ptr %4, align 4
  br label %105

20:                                               ; preds = %3
  %21 = load ptr, ptr %5, align 8
  %22 = getelementptr inbounds %struct.cli_ctx_tag, ptr %21, i32 0, i32 2
  %23 = load ptr, ptr %22, align 8
  %24 = call ptr @cli_gentemp(ptr noundef %23)
  store ptr %24, ptr %8, align 8
  %25 = icmp ne ptr %24, null
  br i1 %25, label %27, label %26

26:                                               ; preds = %20
  store i32 20, ptr %4, align 4
  br label %105

27:                                               ; preds = %20
  %28 = load ptr, ptr %8, align 8
  %29 = call i32 (ptr, i32, ...) @open(ptr noundef %28, i32 noundef 578, i32 noundef 384)
  store i32 %29, ptr %10, align 4
  %30 = icmp ult i32 %29, 0
  br i1 %30, label %31, label %34

31:                                               ; preds = %27
  %32 = load ptr, ptr %8, align 8
  call void (ptr, ...) @cli_errmsg(ptr noundef @.str.26, ptr noundef %32)
  %33 = load ptr, ptr %8, align 8
  call void @free(ptr noundef %33) #8
  store i32 9, ptr %4, align 4
  br label %105

34:                                               ; preds = %27
  br label %35

35:                                               ; preds = %66, %34
  %36 = load i64, ptr %7, align 8
  %37 = icmp ne i64 %36, 0
  br i1 %37, label %38, label %73

38:                                               ; preds = %35
  %39 = load i64, ptr %7, align 8
  %40 = load ptr, ptr %12, align 8
  %41 = getelementptr inbounds %struct.cl_fmap, ptr %40, i32 0, i32 5
  %42 = load i64, ptr %41, align 8
  %43 = icmp ult i64 %39, %42
  br i1 %43, label %44, label %46

44:                                               ; preds = %38
  %45 = load i64, ptr %7, align 8
  br label %50

46:                                               ; preds = %38
  %47 = load ptr, ptr %12, align 8
  %48 = getelementptr inbounds %struct.cl_fmap, ptr %47, i32 0, i32 5
  %49 = load i64, ptr %48, align 8
  br label %50

50:                                               ; preds = %46, %44
  %51 = phi i64 [ %45, %44 ], [ %49, %46 ]
  store i64 %51, ptr %13, align 8
  %52 = load ptr, ptr %12, align 8
  %53 = load i64, ptr %6, align 8
  %54 = load i64, ptr %13, align 8
  %55 = call ptr @fmap_need_off_once(ptr noundef %52, i64 noundef %53, i64 noundef %54)
  store ptr %55, ptr %9, align 8
  %56 = icmp ne ptr %55, null
  br i1 %56, label %58, label %57

57:                                               ; preds = %50
  call void (ptr, ...) @cli_dbgmsg(ptr noundef @.str.27)
  store i32 12, ptr %11, align 4
  br label %73

58:                                               ; preds = %50
  %59 = load i32, ptr %10, align 4
  %60 = load ptr, ptr %9, align 8
  %61 = load i64, ptr %13, align 8
  %62 = call i64 @cli_writen(i32 noundef %59, ptr noundef %60, i64 noundef %61)
  %63 = load i64, ptr %13, align 8
  %64 = icmp ne i64 %62, %63
  br i1 %64, label %65, label %66

65:                                               ; preds = %58
  store i32 14, ptr %11, align 4
  br label %73

66:                                               ; preds = %58
  %67 = load i64, ptr %13, align 8
  %68 = load i64, ptr %7, align 8
  %69 = sub i64 %68, %67
  store i64 %69, ptr %7, align 8
  %70 = load i64, ptr %13, align 8
  %71 = load i64, ptr %6, align 8
  %72 = add i64 %71, %70
  store i64 %72, ptr %6, align 8
  br label %35

73:                                               ; preds = %65, %57, %35
  %74 = load i64, ptr %7, align 8
  %75 = icmp ne i64 %74, 0
  br i1 %75, label %87, label %76

76:                                               ; preds = %73
  %77 = load ptr, ptr %8, align 8
  call void (ptr, ...) @cli_dbgmsg(ptr noundef @.str.28, ptr noundef %77)
  %78 = load i32, ptr %10, align 4
  %79 = call i64 @lseek(i32 noundef %78, i64 noundef 0, i32 noundef 0) #8
  %80 = icmp eq i64 %79, -1
  br i1 %80, label %81, label %82

81:                                               ; preds = %76
  call void (ptr, ...) @cli_dbgmsg(ptr noundef @.str.29)
  store i32 13, ptr %11, align 4
  br label %82

82:                                               ; preds = %81, %76
  %83 = load i32, ptr %10, align 4
  %84 = load ptr, ptr %8, align 8
  %85 = load ptr, ptr %5, align 8
  %86 = call i32 @cli_magic_scan_desc(i32 noundef %83, ptr noundef %84, ptr noundef %85, ptr noundef null, i32 noundef 0)
  store i32 %86, ptr %11, align 4
  br label %87

87:                                               ; preds = %82, %73
  %88 = load i32, ptr %10, align 4
  %89 = call i32 @close(i32 noundef %88)
  %90 = load ptr, ptr %5, align 8
  %91 = getelementptr inbounds %struct.cli_ctx_tag, ptr %90, i32 0, i32 6
  %92 = load ptr, ptr %91, align 8
  %93 = getelementptr inbounds %struct.cl_engine, ptr %92, i32 0, i32 8
  %94 = load i32, ptr %93, align 8
  %95 = icmp ne i32 %94, 0
  br i1 %95, label %102, label %96

96:                                               ; preds = %87
  %97 = load ptr, ptr %8, align 8
  %98 = call i32 @cli_unlink(ptr noundef %97)
  %99 = icmp ne i32 %98, 0
  br i1 %99, label %100, label %101

100:                                              ; preds = %96
  store i32 10, ptr %11, align 4
  br label %101

101:                                              ; preds = %100, %96
  br label %102

102:                                              ; preds = %101, %87
  %103 = load ptr, ptr %8, align 8
  call void @free(ptr noundef %103) #8
  %104 = load i32, ptr %11, align 4
  store i32 %104, ptr %4, align 4
  br label %105

105:                                              ; preds = %102, %31, %26, %19
  %106 = load i32, ptr %4, align 4
  ret i32 %106
}