; Function Attrs: nounwind uwtable
define internal fastcc i32 @is_dump_and_scan(ptr noundef %0, i64 noundef %1, i64 noundef %2) unnamed_addr #0 {
  %4 = getelementptr inbounds i8, ptr %0, i64 96
  %5 = load ptr, ptr %4, align 8
  %.not = icmp eq i64 %2, 0
  br i1 %.not, label %6, label %7

6:                                                ; preds = %3
  tail call void (ptr, ...) @cli_dbgmsg(ptr noundef nonnull @.str.25) #13
  br label %39

7:                                                ; preds = %3
  %8 = getelementptr inbounds i8, ptr %0, i64 16
  %9 = load ptr, ptr %8, align 8
  %10 = tail call ptr @cli_gentemp(ptr noundef %9) #13
  %.not41 = icmp eq ptr %10, null
  br i1 %.not41, label %39, label %11

11:                                               ; preds = %7
  %12 = tail call i32 (ptr, i32, ...) @open(ptr noundef nonnull %10, i32 noundef 578, i32 noundef 384) #13
  %13 = getelementptr inbounds i8, ptr %5, i64 40
  %14 = getelementptr inbounds i8, ptr %5, i64 104
  br label %15

15:                                               ; preds = %11, %22
  %.03349 = phi i64 [ %1, %11 ], [ %24, %22 ]
  %.03548 = phi i64 [ %2, %11 ], [ %23, %22 ]
  %16 = load i64, ptr %13, align 8
  %.035. = tail call i64 @llvm.umin.i64(i64 %.03548, i64 %16)
  %17 = load ptr, ptr %14, align 8
  %18 = tail call ptr %17(ptr noundef %5, i64 noundef %.03349, i64 noundef %.035., i32 noundef 0) #13
  %.not43 = icmp eq ptr %18, null
  br i1 %.not43, label %19, label %20

19:                                               ; preds = %15
  tail call void (ptr, ...) @cli_dbgmsg(ptr noundef nonnull @.str.27) #13
  br label %.thread

20:                                               ; preds = %15
  %21 = tail call i64 @cli_writen(i32 noundef %12, ptr noundef nonnull %18, i64 noundef %.035.) #13
  %.not44 = icmp eq i64 %21, %.035.
  br i1 %.not44, label %22, label %.thread

22:                                               ; preds = %20
  %23 = sub i64 %.03548, %.035.
  %24 = add i64 %.035., %.03349
  %.not42 = icmp eq i64 %23, 0
  br i1 %.not42, label %25, label %15

25:                                               ; preds = %22
  tail call void (ptr, ...) @cli_dbgmsg(ptr noundef nonnull @.str.28, ptr noundef nonnull %10) #13
  %26 = tail call i64 @lseek(i32 noundef %12, i64 noundef 0, i32 noundef 0) #13
  %27 = icmp eq i64 %26, -1
  br i1 %27, label %28, label %29

28:                                               ; preds = %25
  tail call void (ptr, ...) @cli_dbgmsg(ptr noundef nonnull @.str.29) #13
  br label %29

29:                                               ; preds = %28, %25
  %30 = tail call i32 @cli_magic_scan_desc(i32 noundef %12, ptr noundef nonnull %10, ptr noundef %0, ptr noundef null, i32 noundef 0) #13
  br label %.thread

.thread:                                          ; preds = %20, %19, %29
  %.1 = phi i32 [ %30, %29 ], [ 12, %19 ], [ 14, %20 ]
  %31 = tail call i32 @close(i32 noundef %12) #13
  %32 = getelementptr inbounds i8, ptr %0, i64 48
  %33 = load ptr, ptr %32, align 8
  %34 = getelementptr inbounds i8, ptr %33, i64 40
  %35 = load i32, ptr %34, align 8
  %.not45 = icmp eq i32 %35, 0
  br i1 %.not45, label %36, label %38

36:                                               ; preds = %.thread
  %37 = tail call i32 @cli_unlink(ptr noundef nonnull %10) #13
  %.not46 = icmp eq i32 %37, 0
  %spec.select = select i1 %.not46, i32 %.1, i32 10
  br label %38

38:                                               ; preds = %36, %.thread
  %.2 = phi i32 [ %.1, %.thread ], [ %spec.select, %36 ]
  tail call void @free(ptr noundef %10) #13
  br label %39

39:                                               ; preds = %7, %38, %6
  %.0 = phi i32 [ %.2, %38 ], [ 0, %6 ], [ 20, %7 ]
  ret i32 %.0
}